; Function Attrs: mustprogress nounwind uwtable
define noundef zeroext i1 @_ZN5boost10filesystem6nativeERKNSt7__cxx1112basic_stringIcSt11char_traitsIcESaIcEEE(ptr noundef nonnull align 8 dereferenceable(32) %0) local_unnamed_addr #0 {
  %2 = getelementptr inbounds nuw i8, ptr %0, i64 8
  %3 = load i64, ptr %2, align 8, !tbaa !3
  %4 = icmp eq i64 %3, 0
  br i1 %4, label %11, label %5

5:                                                ; preds = %1
  %6 = load ptr, ptr %0, align 8, !tbaa !10
  %7 = load i8, ptr %6, align 1, !tbaa !11
  %.not = icmp eq i8 %7, 32
  br i1 %.not, label %11, label %8

8:                                                ; preds = %5
  %9 = tail call noundef i64 @_ZNKSt7__cxx1112basic_stringIcSt11char_traitsIcESaIcEE4findEcm(ptr noundef nonnull align 8 dereferenceable(32) %0, i8 noundef signext 47, i64 noundef 0) #2
  %10 = icmp eq i64 %9, -1
  br label %11

11:                                               ; preds = %8, %5, %1
  %12 = phi i1 [ false, %5 ], [ false, %1 ], [ %10, %8 ]
  ret i1 %12
}